; Function Attrs: mustprogress uwtable
define hidden noundef i32 @_ZN2cv4usac7Quality10getInliersERKNS_3PtrINS0_5ErrorEEERKNS_3MatERSt6vectorIiSaIiEEd(ptr nocapture noundef nonnull readonly align 8 dereferenceable(16) %0, ptr noundef nonnull align 8 dereferenceable(96) %1, ptr nocapture noundef nonnull readonly align 8 dereferenceable(24) %2, double noundef %3) local_unnamed_addr #3 align 2 {
  %5 = load ptr, ptr %0, align 8
  %6 = load ptr, ptr %5, align 8
  %7 = getelementptr inbounds i8, ptr %6, i64 80
  %8 = load ptr, ptr %7, align 8
  %9 = tail call noundef nonnull align 8 dereferenceable(24) ptr %8(ptr noundef nonnull align 8 dereferenceable(8) %5, ptr noundef nonnull align 8 dereferenceable(96) %1)
  %10 = getelementptr inbounds i8, ptr %2, i64 8
  %11 = load ptr, ptr %10, align 8
  %12 = load ptr, ptr %2, align 8
  %13 = ptrtoint ptr %11 to i64
  %14 = ptrtoint ptr %12 to i64
  %15 = sub i64 %13, %14
  %16 = lshr exact i64 %15, 2
  %17 = trunc i64 %16 to i32
  %18 = icmp sgt i32 %17, 0
  br i1 %18, label %.lr.ph, label %._crit_edge

.lr.ph:                                           ; preds = %4, %31
  %19 = phi ptr [ %32, %31 ], [ %12, %4 ]
  %20 = phi ptr [ %33, %31 ], [ %11, %4 ]
  %indvars.iv = phi i64 [ %indvars.iv.next, %31 ], [ 0, %4 ]
  %.01112 = phi i32 [ %.1, %31 ], [ 0, %4 ]
  %21 = load ptr, ptr %9, align 8
  %22 = getelementptr inbounds float, ptr %21, i64 %indvars.iv
  %23 = load float, ptr %22, align 4
  %24 = fpext float %23 to double
  %25 = fcmp olt double %24, %3
  br i1 %25, label %26, label %31

26:                                               ; preds = %.lr.ph
  %27 = add nsw i32 %.01112, 1
  %28 = sext i32 %.01112 to i64
  %29 = getelementptr inbounds i32, ptr %19, i64 %28
  %30 = trunc nuw nsw i64 %indvars.iv to i32
  store i32 %30, ptr %29, align 4
  %.pre = load ptr, ptr %10, align 8
  %.pre15 = load ptr, ptr %2, align 8
  br label %31

31:                                               ; preds = %.lr.ph, %26
  %32 = phi ptr [ %.pre15, %26 ], [ %19, %.lr.ph ]
  %33 = phi ptr [ %.pre, %26 ], [ %20, %.lr.ph ]
  %.1 = phi i32 [ %27, %26 ], [ %.01112, %.lr.ph ]
  %indvars.iv.next = add nuw nsw i64 %indvars.iv, 1
  %34 = ptrtoint ptr %33 to i64
  %35 = ptrtoint ptr %32 to i64
  %36 = sub i64 %34, %35
  %sext = shl i64 %36, 30
  %37 = ashr i64 %sext, 32
  %38 = icmp slt i64 %indvars.iv.next, %37
  br i1 %38, label %.lr.ph, label %._crit_edge, !llvm.loop !4

._crit_edge:                                      ; preds = %31, %4
  %.011.lcssa = phi i32 [ 0, %4 ], [ %.1, %31 ]
  ret i32 %.011.lcssa
}